target datalayout = "e-m:e-p270:32:32-p271:32:32-p272:64:64-i64:64-i128:128-f80:128-n8:16:32:64-S128"
target triple = "x86_64-unknown-linux-gnu"

%"class.icu_75::SharedObject" = type { %"class.icu_75::UObject", i32, %"struct.std::atomic", ptr }
%"class.icu_75::UObject" = type { ptr }
%"struct.std::atomic" = type { %"struct.std::__atomic_base" }
%"struct.std::__atomic_base" = type { i32 }
%"class.icu_75::MeasureFormat" = type { %"class.icu_75::Format.base", ptr, ptr, ptr, i32, ptr }
%"class.icu_75::Format.base" = type <{ %"class.icu_75::UObject", [157 x i8], [157 x i8] }>
%"class.icu_75::SharedNumberFormat" = type { %"class.icu_75::SharedObject", ptr }

; Function Attrs: mustprogress nounwind uwtable
define linkonce_odr noundef nonnull align 8 dereferenceable(356) ptr @_ZNK6icu_7518SharedNumberFormatdeEv(ptr noundef nonnull align 8 dereferenceable(32) %this) #0 comdat align 2 {
entry:
  %this.addr = alloca ptr, align 8
  store ptr %this, ptr %this.addr, align 8
  %this1 = load ptr, ptr %this.addr, align 8
  %ptr = getelementptr inbounds %"class.icu_75::SharedNumberFormat", ptr %this1, i32 0, i32 1
  %0 = load ptr, ptr %ptr, align 8
  ret ptr %0
}

; Function Attrs: mustprogress nounwind uwtable
define internal noundef signext i8 @_ZL9U_FAILURE10UErrorCode(i32 noundef %code) #0 {
entry:
  %code.addr = alloca i32, align 4
  store i32 %code, ptr %code.addr, align 4
  %0 = load i32, ptr %code.addr, align 4
  %cmp = icmp sgt i32 %0, 0
  %conv = zext i1 %cmp to i8
  ret i8 %conv
}

; Function Attrs: mustprogress uwtable
define noundef ptr @_ZNK6icu_7513MeasureFormat11getLocaleIDER10UErrorCode(ptr noundef nonnull align 8 dereferenceable(368) %this, ptr noundef nonnull align 4 dereferenceable(4) %status) #1 align 2 {
entry:
  %this.addr = alloca ptr, align 8
  %status.addr = alloca ptr, align 8
  store ptr %this, ptr %this.addr, align 8
  store ptr %status, ptr %status.addr, align 8
  %this1 = load ptr, ptr %this.addr, align 8
  %0 = load ptr, ptr %status.addr, align 8
  %call = call noundef ptr @_ZNK6icu_756Format11getLocaleIDE18ULocDataLocaleTypeR10UErrorCode(ptr noundef nonnull align 8 dereferenceable(322) %this1, i32 noundef 1, ptr noundef nonnull align 4 dereferenceable(4) %0)
  ret ptr %call
}

; Function Attrs: mustprogress uwtable
define noundef zeroext i1 @_ZNK6icu_7513MeasureFormateqERKNS_6FormatE(ptr noundef nonnull align 8 dereferenceable(368) %this, ptr noundef nonnull align 8 dereferenceable(322) %other) unnamed_addr #1 align 2 {
entry:
  %retval = alloca i1, align 1
  %this.addr = alloca ptr, align 8
  %other.addr = alloca ptr, align 8
  %rhs = alloca ptr, align 8
  %status = alloca i32, align 4
  %localeId = alloca ptr, align 8
  %rhsLocaleId = alloca ptr, align 8
  store ptr %this, ptr %this.addr, align 8
  store ptr %other, ptr %other.addr, align 8
  %this1 = load ptr, ptr %this.addr, align 8
  %0 = load ptr, ptr %other.addr, align 8
  %cmp = icmp eq ptr %this1, %0
  br i1 %cmp, label %if.then, label %if.end

if.then:                                          ; preds = %entry
  store i1 true, ptr %retval, align 1
  br label %return

if.end:                                           ; preds = %entry
  %1 = load ptr, ptr %other.addr, align 8
  %call = call noundef zeroext i1 @_ZNK6icu_756FormateqERKS0_(ptr noundef nonnull align 8 dereferenceable(322) %this1, ptr noundef nonnull align 8 dereferenceable(322) %1)
  br i1 %call, label %if.end3, label %if.then2

if.then2:                                         ; preds = %if.end
  store i1 false, ptr %retval, align 1
  br label %return

if.end3:                                          ; preds = %if.end
  %2 = load ptr, ptr %other.addr, align 8
  store ptr %2, ptr %rhs, align 8
  %fWidth = getelementptr inbounds %"class.icu_75::MeasureFormat", ptr %this1, i32 0, i32 4
  %3 = load i32, ptr %fWidth, align 8
  %4 = load ptr, ptr %rhs, align 8
  %fWidth4 = getelementptr inbounds %"class.icu_75::MeasureFormat", ptr %4, i32 0, i32 4
  %5 = load i32, ptr %fWidth4, align 8
  %cmp5 = icmp ne i32 %3, %5
  br i1 %cmp5, label %if.then6, label %if.end7

if.then6:                                         ; preds = %if.end3
  store i1 false, ptr %retval, align 1
  br label %return

if.end7:                                          ; preds = %if.end3
  %cache = getelementptr inbounds %"class.icu_75::MeasureFormat", ptr %this1, i32 0, i32 1
  %6 = load ptr, ptr %cache, align 8
  %7 = load ptr, ptr %rhs, align 8
  %cache8 = getelementptr inbounds %"class.icu_75::MeasureFormat", ptr %7, i32 0, i32 1
  %8 = load ptr, ptr %cache8, align 8
  %cmp9 = icmp ne ptr %6, %8
  br i1 %cmp9, label %if.then10, label %if.end20

if.then10:                                        ; preds = %if.end7
  store i32 0, ptr %status, align 4
  %call11 = call noundef ptr @_ZNK6icu_7513MeasureFormat11getLocaleIDER10UErrorCode(ptr noundef nonnull align 8 dereferenceable(368) %this1, ptr noundef nonnull align 4 dereferenceable(4) %status)
  store ptr %call11, ptr %localeId, align 8
  %9 = load ptr, ptr %rhs, align 8
  %call12 = call noundef ptr @_ZNK6icu_7513MeasureFormat11getLocaleIDER10UErrorCode(ptr noundef nonnull align 8 dereferenceable(368) %9, ptr noundef nonnull align 4 dereferenceable(4) %status)
  store ptr %call12, ptr %rhsLocaleId, align 8
  %10 = load i32, ptr %status, align 4
  %call13 = call noundef signext i8 @_ZL9U_FAILURE10UErrorCode(i32 noundef %10)
  %tobool = icmp ne i8 %call13, 0
  br i1 %tobool, label %if.then14, label %if.end15

if.then14:                                        ; preds = %if.then10
  store i1 false, ptr %retval, align 1
  br label %return

if.end15:                                         ; preds = %if.then10
  %11 = load ptr, ptr %localeId, align 8
  %12 = load ptr, ptr %rhsLocaleId, align 8
  %call16 = call i32 @strcmp(ptr noundef %11, ptr noundef %12) #8
  %cmp17 = icmp ne i32 %call16, 0
  br i1 %cmp17, label %if.then18, label %if.end19

if.then18:                                        ; preds = %if.end15
  store i1 false, ptr %retval, align 1
  br label %return

if.end19:                                         ; preds = %if.end15
  br label %if.end20

if.end20:                                         ; preds = %if.end19, %if.end7
  %numberFormat = getelementptr inbounds %"class.icu_75::MeasureFormat", ptr %this1, i32 0, i32 2
  %13 = load ptr, ptr %numberFormat, align 8
  %14 = load ptr, ptr %rhs, align 8
  %numberFormat21 = getelementptr inbounds %"class.icu_75::MeasureFormat", ptr %14, i32 0, i32 2
  %15 = load ptr, ptr %numberFormat21, align 8
  %cmp22 = icmp eq ptr %13, %15
  br i1 %cmp22, label %lor.end, label %lor.rhs

lor.rhs:                                          ; preds = %if.end20
  %numberFormat23 = getelementptr inbounds %"class.icu_75::MeasureFormat", ptr %this1, i32 0, i32 2
  %16 = load ptr, ptr %numberFormat23, align 8
  %call24 = call noundef nonnull align 8 dereferenceable(356) ptr @_ZNK6icu_7518SharedNumberFormatdeEv(ptr noundef nonnull align 8 dereferenceable(32) %16)
  %17 = load ptr, ptr %rhs, align 8
  %numberFormat25 = getelementptr inbounds %"class.icu_75::MeasureFormat", ptr %17, i32 0, i32 2
  %18 = load ptr, ptr %numberFormat25, align 8
  %call26 = call noundef nonnull align 8 dereferenceable(356) ptr @_ZNK6icu_7518SharedNumberFormatdeEv(ptr noundef nonnull align 8 dereferenceable(32) %18)
  %vtable = load ptr, ptr %call24, align 8
  %vfn = getelementptr inbounds ptr, ptr %vtable, i64 3
  %19 = load ptr, ptr %vfn, align 8
  %call27 = call noundef zeroext i1 %19(ptr noundef nonnull align 8 dereferenceable(356) %call24, ptr noundef nonnull align 8 dereferenceable(322) %call26)
  br label %lor.end

lor.end:                                          ; preds = %lor.rhs, %if.end20
  %20 = phi i1 [ true, %if.end20 ], [ %call27, %lor.rhs ]
  store i1 %20, ptr %retval, align 1
  br label %return

return:                                           ; preds = %lor.end, %if.then18, %if.then14, %if.then6, %if.then2, %if.then
  %21 = load i1, ptr %retval, align 1
  ret i1 %21
}