; Function Attrs: mustprogress uwtable
define noundef zeroext i1 @_ZNK6icu_7513MeasureFormateqERKNS_6FormatE(ptr noundef nonnull align 8 dereferenceable(368) %this, ptr noundef nonnull align 8 dereferenceable(322) %other) unnamed_addr #1 align 2 {
entry:
  %status = alloca i32, align 4
  %cmp = icmp eq ptr %this, %other
  br i1 %cmp, label %return, label %if.end

if.end:                                           ; preds = %entry
  %call = tail call noundef zeroext i1 @_ZNK6icu_756FormateqERKS0_(ptr noundef nonnull align 8 dereferenceable(322) %this, ptr noundef nonnull align 8 dereferenceable(322) %other)
  br i1 %call, label %if.end3, label %return

if.end3:                                          ; preds = %if.end
  %fWidth = getelementptr inbounds i8, ptr %this, i64 352
  %0 = load i32, ptr %fWidth, align 8
  %fWidth4 = getelementptr inbounds i8, ptr %other, i64 352
  %1 = load i32, ptr %fWidth4, align 8
  %cmp5.not = icmp eq i32 %0, %1
  br i1 %cmp5.not, label %if.end7, label %return

if.end7:                                          ; preds = %if.end3
  %cache = getelementptr inbounds i8, ptr %this, i64 328
  %2 = load ptr, ptr %cache, align 8
  %cache8 = getelementptr inbounds i8, ptr %other, i64 328
  %3 = load ptr, ptr %cache8, align 8
  %cmp9.not = icmp eq ptr %2, %3
  br i1 %cmp9.not, label %if.end20, label %if.then10

if.then10:                                        ; preds = %if.end7
  store i32 0, ptr %status, align 4
  %call.i = call noundef ptr @_ZNK6icu_756Format11getLocaleIDE18ULocDataLocaleTypeR10UErrorCode(ptr noundef nonnull align 8 dereferenceable(322) %this, i32 noundef 1, ptr noundef nonnull align 4 dereferenceable(4) %status)
  %call.i7 = call noundef ptr @_ZNK6icu_756Format11getLocaleIDE18ULocDataLocaleTypeR10UErrorCode(ptr noundef nonnull align 8 dereferenceable(322) %other, i32 noundef 1, ptr noundef nonnull align 4 dereferenceable(4) %status)
  %4 = load i32, ptr %status, align 4
  %cmp.i = icmp slt i32 %4, 1
  br i1 %cmp.i, label %if.end15, label %return

if.end15:                                         ; preds = %if.then10
  %call16 = call i32 @strcmp(ptr noundef nonnull dereferenceable(1) %call.i, ptr noundef nonnull dereferenceable(1) %call.i7) #19
  %cmp17.not = icmp eq i32 %call16, 0
  br i1 %cmp17.not, label %if.end20, label %return

if.end20:                                         ; preds = %if.end15, %if.end7
  %numberFormat = getelementptr inbounds i8, ptr %this, i64 336
  %5 = load ptr, ptr %numberFormat, align 8
  %numberFormat21 = getelementptr inbounds i8, ptr %other, i64 336
  %6 = load ptr, ptr %numberFormat21, align 8
  %cmp22 = icmp eq ptr %5, %6
  br i1 %cmp22, label %return, label %lor.rhs

lor.rhs:                                          ; preds = %if.end20
  %ptr.i = getelementptr inbounds i8, ptr %5, i64 24
  %7 = load ptr, ptr %ptr.i, align 8
  %ptr.i8 = getelementptr inbounds i8, ptr %6, i64 24
  %8 = load ptr, ptr %ptr.i8, align 8
  %vtable = load ptr, ptr %7, align 8
  %vfn = getelementptr inbounds i8, ptr %vtable, i64 24
  %9 = load ptr, ptr %vfn, align 8
  %call27 = call noundef zeroext i1 %9(ptr noundef nonnull align 8 dereferenceable(356) %7, ptr noundef nonnull align 8 dereferenceable(322) %8)
  br label %return

return:                                           ; preds = %if.end20, %lor.rhs, %if.end15, %if.then10, %if.end3, %if.end, %entry
  %retval.0 = phi i1 [ true, %entry ], [ false, %if.end ], [ false, %if.end3 ], [ false, %if.then10 ], [ false, %if.end15 ], [ true, %if.end20 ], [ %call27, %lor.rhs ]
  ret i1 %retval.0
}